; Function Attrs: mustprogress nounwind uwtable
define dso_local void @_ZNK4llvm24EmitStringIntegerMatcher9printImplERNS_11raw_ostreamEj(ptr noundef nonnull align 8 dereferenceable(66) %0, ptr noundef nonnull align 8 dereferenceable(48) %1, i32 noundef %2) unnamed_addr #1 align 2 {
  %4 = tail call noundef nonnull align 8 dereferenceable(48) ptr @_ZN4llvm11raw_ostream6indentEj(ptr noundef nonnull align 8 dereferenceable(48) %1, i32 noundef %2) #13
  %5 = getelementptr inbounds nuw i8, ptr %4, i64 24
  %6 = load ptr, ptr %5, align 8
  %7 = getelementptr inbounds nuw i8, ptr %4, i64 32
  %8 = load ptr, ptr %7, align 8
  %9 = ptrtoint ptr %6 to i64
  %10 = ptrtoint ptr %8 to i64
  %11 = sub i64 %9, %10
  %12 = icmp ult i64 %11, 18
  br i1 %12, label %13, label %15

13:                                               ; preds = %3
  %14 = tail call noundef nonnull align 8 dereferenceable(48) ptr @_ZN4llvm11raw_ostream5writeEPKcm(ptr noundef nonnull align 8 dereferenceable(48) %4, ptr noundef nonnull @.str.37, i64 noundef 18) #13
  br label %_ZN4llvm11raw_ostreamlsEPKc.exit

15:                                               ; preds = %3
  tail call void @llvm.memcpy.p0.p0.i64(ptr noundef nonnull align 1 dereferenceable(18) %8, ptr noundef nonnull align 1 dereferenceable(18) @.str.37, i64 18, i1 false)
  %16 = load ptr, ptr %7, align 8
  %17 = getelementptr inbounds i8, ptr %16, i64 18
  store ptr %17, ptr %7, align 8
  br label %_ZN4llvm11raw_ostreamlsEPKc.exit

_ZN4llvm11raw_ostreamlsEPKc.exit:                 ; preds = %13, %15
  %.0.i.i = phi ptr [ %14, %13 ], [ %4, %15 ]
  %18 = getelementptr inbounds nuw i8, ptr %0, i64 32
  %19 = tail call noundef ptr @_ZNKSt7__cxx1112basic_stringIcSt11char_traitsIcESaIcEE4dataEv(ptr noundef nonnull align 8 dereferenceable(32) %18) #13
  %20 = tail call noundef i64 @_ZNKSt7__cxx1112basic_stringIcSt11char_traitsIcESaIcEE6lengthEv(ptr noundef nonnull align 8 dereferenceable(32) %18) #13
  %21 = tail call noundef nonnull align 8 dereferenceable(48) ptr @_ZN4llvm11raw_ostream5writeEPKcm(ptr noundef nonnull align 8 dereferenceable(48) %.0.i.i, ptr noundef %19, i64 noundef %20) #13
  %22 = getelementptr inbounds nuw i8, ptr %21, i64 24
  %23 = load ptr, ptr %22, align 8
  %24 = getelementptr inbounds nuw i8, ptr %21, i64 32
  %25 = load ptr, ptr %24, align 8
  %26 = ptrtoint ptr %23 to i64
  %27 = ptrtoint ptr %25 to i64
  %28 = sub i64 %26, %27
  %29 = icmp ult i64 %28, 4
  br i1 %29, label %30, label %32

30:                                               ; preds = %_ZN4llvm11raw_ostreamlsEPKc.exit
  %31 = tail call noundef nonnull align 8 dereferenceable(48) ptr @_ZN4llvm11raw_ostream5writeEPKcm(ptr noundef nonnull align 8 dereferenceable(48) %21, ptr noundef nonnull @.str.36, i64 noundef 4) #13
  br label %_ZN4llvm11raw_ostreamlsEPKc.exit4

32:                                               ; preds = %_ZN4llvm11raw_ostreamlsEPKc.exit
  store i32 1028937248, ptr %25, align 1
  %33 = load ptr, ptr %24, align 8
  %34 = getelementptr inbounds i8, ptr %33, i64 4
  store ptr %34, ptr %24, align 8
  br label %_ZN4llvm11raw_ostreamlsEPKc.exit4

_ZN4llvm11raw_ostreamlsEPKc.exit4:                ; preds = %30, %32
  %.0.i.i3 = phi ptr [ %31, %30 ], [ %21, %32 ]
  %35 = getelementptr inbounds nuw i8, ptr %0, i64 64
  %36 = load i16, ptr %35, align 8
  %37 = tail call { ptr, i64 } @_ZN4llvm11getEnumNameENS_3MVT15SimpleValueTypeE(i16 noundef zeroext %36) #13
  %38 = extractvalue { ptr, i64 } %37, 0
  %39 = extractvalue { ptr, i64 } %37, 1
  %40 = getelementptr inbounds nuw i8, ptr %.0.i.i3, i64 24
  %41 = load ptr, ptr %40, align 8
  %42 = getelementptr inbounds nuw i8, ptr %.0.i.i3, i64 32
  %43 = load ptr, ptr %42, align 8
  %44 = ptrtoint ptr %41 to i64
  %45 = ptrtoint ptr %43 to i64
  %46 = sub i64 %44, %45
  %47 = icmp ugt i64 %39, %46
  br i1 %47, label %48, label %50

48:                                               ; preds = %_ZN4llvm11raw_ostreamlsEPKc.exit4
  %49 = tail call noundef nonnull align 8 dereferenceable(48) ptr @_ZN4llvm11raw_ostream5writeEPKcm(ptr noundef nonnull align 8 dereferenceable(48) %.0.i.i3, ptr noundef %38, i64 noundef %39) #13
  %.phi.trans.insert = getelementptr inbounds nuw i8, ptr %49, i64 32
  %.pre = load ptr, ptr %.phi.trans.insert, align 8
  br label %_ZN4llvm11raw_ostreamlsENS_9StringRefE.exit

50:                                               ; preds = %_ZN4llvm11raw_ostreamlsEPKc.exit4
  %.not.i = icmp eq i64 %39, 0
  br i1 %.not.i, label %_ZN4llvm11raw_ostreamlsENS_9StringRefE.exit, label %51

51:                                               ; preds = %50
  tail call void @llvm.memcpy.p0.p0.i64(ptr align 1 %43, ptr align 1 %38, i64 %39, i1 false)
  %52 = load ptr, ptr %42, align 8
  %53 = getelementptr inbounds i8, ptr %52, i64 %39
  store ptr %53, ptr %42, align 8
  br label %_ZN4llvm11raw_ostreamlsENS_9StringRefE.exit

_ZN4llvm11raw_ostreamlsENS_9StringRefE.exit:      ; preds = %48, %50, %51
  %54 = phi ptr [ %.pre, %48 ], [ %53, %51 ], [ %43, %50 ]
  %.0.i = phi ptr [ %49, %48 ], [ %.0.i.i3, %51 ], [ %.0.i.i3, %50 ]
  %55 = getelementptr inbounds nuw i8, ptr %.0.i, i64 24
  %56 = load ptr, ptr %55, align 8
  %.not.i5 = icmp ult ptr %54, %56
  br i1 %.not.i5, label %59, label %57

57:                                               ; preds = %_ZN4llvm11raw_ostreamlsENS_9StringRefE.exit
  %58 = tail call noundef nonnull align 8 dereferenceable(48) ptr @_ZN4llvm11raw_ostream5writeEh(ptr noundef nonnull align 8 dereferenceable(48) %.0.i, i8 noundef zeroext 10) #13
  br label %_ZN4llvm11raw_ostreamlsEc.exit

59:                                               ; preds = %_ZN4llvm11raw_ostreamlsENS_9StringRefE.exit
  %60 = getelementptr inbounds nuw i8, ptr %.0.i, i64 32
  %61 = getelementptr inbounds i8, ptr %54, i64 1
  store ptr %61, ptr %60, align 8
  store i8 10, ptr %54, align 1
  br label %_ZN4llvm11raw_ostreamlsEc.exit

_ZN4llvm11raw_ostreamlsEc.exit:                   ; preds = %57, %59
  ret void
}